target datalayout = "e-m:e-p270:32:32-p271:32:32-p272:64:64-i64:64-i128:128-f80:128-n8:16:32:64-S128"
target triple = "x86_64-pc-linux-gnu"

%"class.(anonymous namespace)::AArch64PostLegalizerLowering" = type { %"class.llvm::MachineFunctionPass", %"struct.(anonymous namespace)::AArch64PostLegalizerLoweringImplRuleConfig" }
%"class.llvm::MachineFunctionPass" = type { %"class.llvm::FunctionPass.base", %"class.llvm::MachineFunctionProperties", %"class.llvm::MachineFunctionProperties", %"class.llvm::MachineFunctionProperties" }
%"class.llvm::FunctionPass.base" = type { %"class.llvm::Pass.base" }
%"class.llvm::Pass.base" = type <{ ptr, ptr, ptr, i32 }>
%"class.llvm::MachineFunctionProperties" = type { %"class.std::bitset" }
%"class.std::bitset" = type { %"struct.std::_Base_bitset" }
%"struct.std::_Base_bitset" = type { i64 }
%"struct.(anonymous namespace)::AArch64PostLegalizerLoweringImplRuleConfig" = type { %"class.llvm::SparseBitVector" }
%"class.llvm::SparseBitVector" = type { %"class.std::__cxx11::list", %"struct.std::_List_iterator" }
%"class.std::__cxx11::list" = type { %"class.std::__cxx11::_List_base" }
%"class.std::__cxx11::_List_base" = type { %"struct.std::__cxx11::_List_base<llvm::SparseBitVectorElement<>, std::allocator<llvm::SparseBitVectorElement<>>>::_List_impl" }
%"struct.std::__cxx11::_List_base<llvm::SparseBitVectorElement<>, std::allocator<llvm::SparseBitVectorElement<>>>::_List_impl" = type { %"struct.std::__detail::_List_node_header" }
%"struct.std::__detail::_List_node_header" = type { %"struct.std::__detail::_List_node_base", i64 }
%"struct.std::__detail::_List_node_base" = type { ptr, ptr }
%"struct.std::_List_iterator" = type { ptr }
%"struct.std::_List_node" = type { %"struct.std::__detail::_List_node_base", %"struct.__gnu_cxx::__aligned_membuf" }
%"struct.__gnu_cxx::__aligned_membuf" = type { [24 x i8] }

; Function Attrs: mustprogress nounwind uwtable
define linkonce_odr hidden void @_ZNSt15__new_allocatorISt10_List_nodeIN4llvm22SparseBitVectorElementILj128EEEEE10deallocateEPS4_m(ptr noundef nonnull align 1 dereferenceable(1) %0, ptr noundef %1, i64 noundef %2) #1 comdat align 2 {
  %4 = alloca ptr, align 8
  %5 = alloca ptr, align 8
  %6 = alloca i64, align 8
  store ptr %0, ptr %4, align 8
  store ptr %1, ptr %5, align 8
  store i64 %2, ptr %6, align 8
  %7 = load ptr, ptr %5, align 8
  %8 = load i64, ptr %6, align 8
  %9 = mul i64 %8, 40
  call void @_ZdlPvm(ptr noundef %7, i64 noundef %9) #17
  ret void
}

; Function Attrs: mustprogress nounwind uwtable
define linkonce_odr hidden noundef ptr @_ZN9__gnu_cxx16__aligned_membufIN4llvm22SparseBitVectorElementILj128EEEE7_M_addrEv(ptr noundef nonnull align 8 dereferenceable(24) %0) #1 comdat align 2 {
  %2 = alloca ptr, align 8
  store ptr %0, ptr %2, align 8
  %3 = load ptr, ptr %2, align 8
  %4 = getelementptr inbounds nuw %"struct.__gnu_cxx::__aligned_membuf", ptr %3, i32 0, i32 0
  ret ptr %4
}

; Function Attrs: mustprogress nounwind uwtable
define linkonce_odr hidden void @_ZNSt15__new_allocatorISt10_List_nodeIN4llvm22SparseBitVectorElementILj128EEEEED2Ev(ptr noundef nonnull align 1 dereferenceable(1) %0) unnamed_addr #1 comdat align 2 {
  %2 = alloca ptr, align 8
  store ptr %0, ptr %2, align 8
  ret void
}

; Function Attrs: mustprogress nounwind uwtable
define linkonce_odr hidden void @_ZNSt16allocator_traitsISaISt10_List_nodeIN4llvm22SparseBitVectorElementILj128EEEEEE10deallocateERS5_PS4_m(ptr noundef nonnull align 1 dereferenceable(1) %0, ptr noundef %1, i64 noundef %2) #1 comdat align 2 {
  %4 = alloca ptr, align 8
  %5 = alloca ptr, align 8
  %6 = alloca i64, align 8
  store ptr %0, ptr %4, align 8
  store ptr %1, ptr %5, align 8
  store i64 %2, ptr %6, align 8
  %7 = load ptr, ptr %4, align 8
  %8 = load ptr, ptr %5, align 8
  %9 = load i64, ptr %6, align 8
  call void @_ZNSt15__new_allocatorISt10_List_nodeIN4llvm22SparseBitVectorElementILj128EEEEE10deallocateEPS4_m(ptr noundef nonnull align 1 dereferenceable(1) %7, ptr noundef %8, i64 noundef %9)
  ret void
}

; Function Attrs: mustprogress nounwind uwtable
define linkonce_odr hidden void @_ZNSt15__new_allocatorISt10_List_nodeIN4llvm22SparseBitVectorElementILj128EEEEE7destroyIS3_EEvPT_(ptr noundef nonnull align 1 dereferenceable(1) %0, ptr noundef %1) #1 comdat align 2 {
  %3 = alloca ptr, align 8
  %4 = alloca ptr, align 8
  store ptr %0, ptr %3, align 8
  store ptr %1, ptr %4, align 8
  ret void
}

; Function Attrs: mustprogress nounwind uwtable
define linkonce_odr hidden noundef ptr @_ZN9__gnu_cxx16__aligned_membufIN4llvm22SparseBitVectorElementILj128EEEE6_M_ptrEv(ptr noundef nonnull align 8 dereferenceable(24) %0) #1 comdat align 2 {
  %2 = alloca ptr, align 8
  store ptr %0, ptr %2, align 8
  %3 = load ptr, ptr %2, align 8
  %4 = call noundef ptr @_ZN9__gnu_cxx16__aligned_membufIN4llvm22SparseBitVectorElementILj128EEEE7_M_addrEv(ptr noundef nonnull align 8 dereferenceable(24) %3) #2
  ret ptr %4
}

; Function Attrs: mustprogress nounwind uwtable
define linkonce_odr hidden void @_ZNSaISt10_List_nodeIN4llvm22SparseBitVectorElementILj128EEEEED2Ev(ptr noundef nonnull align 1 dereferenceable(1) %0) unnamed_addr #1 comdat align 2 {
  %2 = alloca ptr, align 8
  store ptr %0, ptr %2, align 8
  %3 = load ptr, ptr %2, align 8
  call void @_ZNSt15__new_allocatorISt10_List_nodeIN4llvm22SparseBitVectorElementILj128EEEEED2Ev(ptr noundef nonnull align 1 dereferenceable(1) %3) #2
  ret void
}

; Function Attrs: mustprogress nounwind uwtable
define linkonce_odr hidden void @_ZNSt7__cxx1110_List_baseIN4llvm22SparseBitVectorElementILj128EEESaIS3_EE11_M_put_nodeEPSt10_List_nodeIS3_E(ptr noundef nonnull align 8 dereferenceable(24) %0, ptr noundef %1) #1 comdat align 2 {
  %3 = alloca ptr, align 8
  %4 = alloca ptr, align 8
  store ptr %0, ptr %3, align 8
  store ptr %1, ptr %4, align 8
  %5 = load ptr, ptr %3, align 8
  %6 = getelementptr inbounds nuw %"class.std::__cxx11::_List_base", ptr %5, i32 0, i32 0
  %7 = load ptr, ptr %4, align 8
  call void @_ZNSt16allocator_traitsISaISt10_List_nodeIN4llvm22SparseBitVectorElementILj128EEEEEE10deallocateERS5_PS4_m(ptr noundef nonnull align 1 dereferenceable(1) %6, ptr noundef %7, i64 noundef 1)
  ret void
}

; Function Attrs: mustprogress nounwind uwtable
define linkonce_odr hidden void @_ZNSt16allocator_traitsISaISt10_List_nodeIN4llvm22SparseBitVectorElementILj128EEEEEE7destroyIS3_EEvRS5_PT_(ptr noundef nonnull align 1 dereferenceable(1) %0, ptr noundef %1) #1 comdat align 2 {
  %3 = alloca ptr, align 8
  %4 = alloca ptr, align 8
  store ptr %0, ptr %3, align 8
  store ptr %1, ptr %4, align 8
  %5 = load ptr, ptr %3, align 8
  %6 = load ptr, ptr %4, align 8
  call void @_ZNSt15__new_allocatorISt10_List_nodeIN4llvm22SparseBitVectorElementILj128EEEEE7destroyIS3_EEvPT_(ptr noundef nonnull align 1 dereferenceable(1) %5, ptr noundef %6) #2
  ret void
}

; Function Attrs: mustprogress nounwind uwtable
define linkonce_odr hidden noundef nonnull align 1 dereferenceable(1) ptr @_ZNSt7__cxx1110_List_baseIN4llvm22SparseBitVectorElementILj128EEESaIS3_EE21_M_get_Node_allocatorEv(ptr noundef nonnull align 8 dereferenceable(24) %0) #1 comdat align 2 {
  %2 = alloca ptr, align 8
  store ptr %0, ptr %2, align 8
  %3 = load ptr, ptr %2, align 8
  %4 = getelementptr inbounds nuw %"class.std::__cxx11::_List_base", ptr %3, i32 0, i32 0
  ret ptr %4
}

; Function Attrs: mustprogress nounwind uwtable
define linkonce_odr hidden noundef ptr @_ZNSt10_List_nodeIN4llvm22SparseBitVectorElementILj128EEEE9_M_valptrEv(ptr noundef nonnull align 8 dereferenceable(40) %0) #1 comdat align 2 {
  %2 = alloca ptr, align 8
  store ptr %0, ptr %2, align 8
  %3 = load ptr, ptr %2, align 8
  %4 = getelementptr inbounds nuw %"struct.std::_List_node", ptr %3, i32 0, i32 1
  %5 = call noundef ptr @_ZN9__gnu_cxx16__aligned_membufIN4llvm22SparseBitVectorElementILj128EEEE6_M_ptrEv(ptr noundef nonnull align 8 dereferenceable(24) %4) #2
  ret ptr %5
}

; Function Attrs: mustprogress nounwind uwtable
define linkonce_odr hidden void @_ZNSt7__cxx1110_List_baseIN4llvm22SparseBitVectorElementILj128EEESaIS3_EE10_List_implD2Ev(ptr noundef nonnull align 8 dereferenceable(24) %0) unnamed_addr #1 comdat align 2 {
  %2 = alloca ptr, align 8
  store ptr %0, ptr %2, align 8
  %3 = load ptr, ptr %2, align 8
  call void @_ZNSaISt10_List_nodeIN4llvm22SparseBitVectorElementILj128EEEEED2Ev(ptr noundef nonnull align 1 dereferenceable(1) %3) #2
  ret void
}

; Function Attrs: mustprogress nounwind uwtable
define linkonce_odr void @_ZNSt7__cxx1110_List_baseIN4llvm22SparseBitVectorElementILj128EEESaIS3_EE8_M_clearEv(ptr noundef nonnull align 8 dereferenceable(24) %0) #1 comdat align 2 {
  %2 = alloca ptr, align 8
  %3 = alloca ptr, align 8
  %4 = alloca ptr, align 8
  %5 = alloca ptr, align 8
  store ptr %0, ptr %2, align 8
  %6 = load ptr, ptr %2, align 8
  %7 = getelementptr inbounds nuw %"class.std::__cxx11::_List_base", ptr %6, i32 0, i32 0
  %8 = getelementptr inbounds nuw %"struct.std::__cxx11::_List_base<llvm::SparseBitVectorElement<>, std::allocator<llvm::SparseBitVectorElement<>>>::_List_impl", ptr %7, i32 0, i32 0
  %9 = getelementptr inbounds nuw %"struct.std::__detail::_List_node_base", ptr %8, i32 0, i32 0
  %10 = load ptr, ptr %9, align 8
  store ptr %10, ptr %3, align 8
  br label %11

11:                                               ; preds = %16, %1
  %12 = load ptr, ptr %3, align 8
  %13 = getelementptr inbounds nuw %"class.std::__cxx11::_List_base", ptr %6, i32 0, i32 0
  %14 = getelementptr inbounds nuw %"struct.std::__cxx11::_List_base<llvm::SparseBitVectorElement<>, std::allocator<llvm::SparseBitVectorElement<>>>::_List_impl", ptr %13, i32 0, i32 0
  %15 = icmp ne ptr %12, %14
  br i1 %15, label %16, label %26

16:                                               ; preds = %11
  %17 = load ptr, ptr %3, align 8
  store ptr %17, ptr %4, align 8
  %18 = load ptr, ptr %4, align 8
  %19 = getelementptr inbounds nuw %"struct.std::__detail::_List_node_base", ptr %18, i32 0, i32 0
  %20 = load ptr, ptr %19, align 8
  store ptr %20, ptr %3, align 8
  %21 = load ptr, ptr %4, align 8
  %22 = call noundef ptr @_ZNSt10_List_nodeIN4llvm22SparseBitVectorElementILj128EEEE9_M_valptrEv(ptr noundef nonnull align 8 dereferenceable(40) %21)
  store ptr %22, ptr %5, align 8
  %23 = call noundef nonnull align 1 dereferenceable(1) ptr @_ZNSt7__cxx1110_List_baseIN4llvm22SparseBitVectorElementILj128EEESaIS3_EE21_M_get_Node_allocatorEv(ptr noundef nonnull align 8 dereferenceable(24) %6) #2
  %24 = load ptr, ptr %5, align 8
  call void @_ZNSt16allocator_traitsISaISt10_List_nodeIN4llvm22SparseBitVectorElementILj128EEEEEE7destroyIS3_EEvRS5_PT_(ptr noundef nonnull align 1 dereferenceable(1) %23, ptr noundef %24) #2
  %25 = load ptr, ptr %4, align 8
  call void @_ZNSt7__cxx1110_List_baseIN4llvm22SparseBitVectorElementILj128EEESaIS3_EE11_M_put_nodeEPSt10_List_nodeIS3_E(ptr noundef nonnull align 8 dereferenceable(24) %6, ptr noundef %25) #2
  br label %11, !llvm.loop !14

26:                                               ; preds = %11
  ret void
}

; Function Attrs: mustprogress nounwind uwtable
define linkonce_odr hidden void @_ZNSt7__cxx1110_List_baseIN4llvm22SparseBitVectorElementILj128EEESaIS3_EED2Ev(ptr noundef nonnull align 8 dereferenceable(24) %0) unnamed_addr #1 comdat align 2 {
  %2 = alloca ptr, align 8
  store ptr %0, ptr %2, align 8
  %3 = load ptr, ptr %2, align 8
  call void @_ZNSt7__cxx1110_List_baseIN4llvm22SparseBitVectorElementILj128EEESaIS3_EE8_M_clearEv(ptr noundef nonnull align 8 dereferenceable(24) %3) #2
  %4 = getelementptr inbounds nuw %"class.std::__cxx11::_List_base", ptr %3, i32 0, i32 0
  call void @_ZNSt7__cxx1110_List_baseIN4llvm22SparseBitVectorElementILj128EEESaIS3_EE10_List_implD2Ev(ptr noundef nonnull align 8 dereferenceable(24) %4) #2
  ret void
}

; Function Attrs: mustprogress nounwind uwtable
define linkonce_odr hidden void @_ZNSt7__cxx114listIN4llvm22SparseBitVectorElementILj128EEESaIS3_EED2Ev(ptr noundef nonnull align 8 dereferenceable(24) %0) unnamed_addr #1 comdat align 2 {
  %2 = alloca ptr, align 8
  store ptr %0, ptr %2, align 8
  %3 = load ptr, ptr %2, align 8
  call void @_ZNSt7__cxx1110_List_baseIN4llvm22SparseBitVectorElementILj128EEESaIS3_EED2Ev(ptr noundef nonnull align 8 dereferenceable(24) %3) #2
  ret void
}

; Function Attrs: mustprogress nounwind uwtable
define linkonce_odr hidden void @_ZN4llvm12FunctionPassD2Ev(ptr noundef nonnull align 8 dereferenceable(28) %0) unnamed_addr #1 comdat align 2 {
  %2 = alloca ptr, align 8
  store ptr %0, ptr %2, align 8
  %3 = load ptr, ptr %2, align 8
  call void @_ZN4llvm4PassD2Ev(ptr noundef nonnull align 8 dereferenceable(28) %3) #2
  ret void
}

; Function Attrs: mustprogress nounwind uwtable
define linkonce_odr hidden void @_ZN4llvm15SparseBitVectorILj128EED2Ev(ptr noundef nonnull align 8 dereferenceable(32) %0) unnamed_addr #1 comdat align 2 {
  %2 = alloca ptr, align 8
  store ptr %0, ptr %2, align 8
  %3 = load ptr, ptr %2, align 8
  %4 = getelementptr inbounds nuw %"class.llvm::SparseBitVector", ptr %3, i32 0, i32 0
  call void @_ZNSt7__cxx114listIN4llvm22SparseBitVectorElementILj128EEESaIS3_EED2Ev(ptr noundef nonnull align 8 dereferenceable(24) %4) #2
  ret void
}

; Function Attrs: mustprogress nounwind uwtable
define linkonce_odr hidden void @_ZN4llvm19MachineFunctionPassD2Ev(ptr noundef nonnull align 8 dereferenceable(56) %0) unnamed_addr #1 comdat align 2 {
  %2 = alloca ptr, align 8
  store ptr %0, ptr %2, align 8
  %3 = load ptr, ptr %2, align 8
  call void @_ZN4llvm12FunctionPassD2Ev(ptr noundef nonnull align 8 dereferenceable(28) %3) #2
  ret void
}

; Function Attrs: mustprogress nounwind uwtable
define internal void @_ZN12_GLOBAL__N_142AArch64PostLegalizerLoweringImplRuleConfigD2Ev(ptr noundef nonnull align 8 dereferenceable(32) %0) unnamed_addr #1 align 2 {
  %2 = alloca ptr, align 8
  store ptr %0, ptr %2, align 8
  %3 = load ptr, ptr %2, align 8
  %4 = getelementptr inbounds nuw %"struct.(anonymous namespace)::AArch64PostLegalizerLoweringImplRuleConfig", ptr %3, i32 0, i32 0
  call void @_ZN4llvm15SparseBitVectorILj128EED2Ev(ptr noundef nonnull align 8 dereferenceable(32) %4) #2
  ret void
}

; Function Attrs: mustprogress nounwind uwtable
define internal void @_ZN12_GLOBAL__N_128AArch64PostLegalizerLoweringD2Ev(ptr noundef nonnull align 8 dereferenceable(88) %0) unnamed_addr #1 align 2 {
  %2 = alloca ptr, align 8
  store ptr %0, ptr %2, align 8
  %3 = load ptr, ptr %2, align 8
  store ptr getelementptr inbounds inrange(-16, 176) ({ [24 x ptr] }, ptr @_ZTVN12_GLOBAL__N_128AArch64PostLegalizerLoweringE, i32 0, i32 0, i32 2), ptr %3, align 8
  %4 = getelementptr inbounds nuw %"class.(anonymous namespace)::AArch64PostLegalizerLowering", ptr %3, i32 0, i32 1
  call void @_ZN12_GLOBAL__N_142AArch64PostLegalizerLoweringImplRuleConfigD2Ev(ptr noundef nonnull align 8 dereferenceable(32) %4) #2
  call void @_ZN4llvm19MachineFunctionPassD2Ev(ptr noundef nonnull align 8 dereferenceable(56) %3) #2
  ret void
}