; Function Attrs: mustprogress nounwind uwtable
define internal void @_ZN12_GLOBAL__N_128AArch64PostLegalizerLoweringD2Ev(ptr noundef nonnull align 8 dereferenceable(88) %0) unnamed_addr #0 align 2 {
  store ptr getelementptr inbounds inrange(-16, 176) (i8, ptr @_ZTVN12_GLOBAL__N_128AArch64PostLegalizerLoweringE, i64 16), ptr %0, align 8
  %2 = getelementptr inbounds nuw i8, ptr %0, i64 56
  %3 = load ptr, ptr %2, align 8
  %.not8.i.i.i.i.i = icmp eq ptr %3, %2
  br i1 %.not8.i.i.i.i.i, label %_ZN12_GLOBAL__N_142AArch64PostLegalizerLoweringImplRuleConfigD2Ev.exit, label %.lr.ph.i.i.i.i.i

.lr.ph.i.i.i.i.i:                                 ; preds = %1, %.lr.ph.i.i.i.i.i
  %.09.i.i.i.i.i = phi ptr [ %4, %.lr.ph.i.i.i.i.i ], [ %3, %1 ]
  %4 = load ptr, ptr %.09.i.i.i.i.i, align 8
  tail call void @_ZdlPvm(ptr noundef %.09.i.i.i.i.i, i64 noundef 40) #23
  %.not.i.i.i.i.i = icmp eq ptr %4, %2
  br i1 %.not.i.i.i.i.i, label %_ZN12_GLOBAL__N_142AArch64PostLegalizerLoweringImplRuleConfigD2Ev.exit, label %.lr.ph.i.i.i.i.i, !llvm.loop !15

_ZN12_GLOBAL__N_142AArch64PostLegalizerLoweringImplRuleConfigD2Ev.exit: ; preds = %.lr.ph.i.i.i.i.i, %1
  tail call void @_ZN4llvm4PassD2Ev(ptr noundef nonnull align 8 dereferenceable(28) %0) #22
  ret void
}